; Function Attrs: nounwind uwtable
define ptr @l_Lean_Elab_addCompletionInfo___at_Lean_withSetOptionIn___spec__2(ptr noundef %0, ptr noundef readnone captures(none) %1, ptr noundef %2, ptr noundef %3) local_unnamed_addr #0 {
  tail call void @lean_inc_heartbeat() #6
  %5 = tail call noalias ptr @mi_malloc_small(i64 noundef 16) #6
  %6 = icmp eq ptr %5, null
  br i1 %6, label %7, label %lean_alloc_ctor.exit

7:                                                ; preds = %4
  tail call void @lean_internal_panic_out_of_memory() #7
  unreachable

lean_alloc_ctor.exit:                             ; preds = %4
  %8 = getelementptr inbounds nuw i8, ptr %5, i64 4
  store i32 1, ptr %5, align 4, !tbaa !4
  store i32 117506064, ptr %8, align 4
  %9 = getelementptr inbounds nuw i8, ptr %5, i64 8
  store ptr %0, ptr %9, align 8, !tbaa !9
  %10 = tail call ptr @l_Lean_Elab_pushInfoLeaf___at_Lean_withSetOptionIn___spec__3(ptr noundef nonnull %5, ptr poison, ptr noundef %2, ptr noundef %3)
  ret ptr %10
}